target datalayout = "e-m:e-p270:32:32-p271:32:32-p272:64:64-i64:64-i128:128-f80:128-n8:16:32:64-S128"
target triple = "x86_64-pc-linux-gnu"

%"class.std::__1::basic_string" = type { %"class.std::__1::__compressed_pair.2" }
%"class.std::__1::__compressed_pair.2" = type { %"struct.std::__1::__compressed_pair_elem.3" }
%"struct.std::__1::__compressed_pair_elem.3" = type { %"struct.std::__1::basic_string<char>::__rep" }
%"struct.std::__1::basic_string<char>::__rep" = type { %union.anon }
%union.anon = type { %"struct.std::__1::basic_string<char>::__long" }
%"struct.std::__1::basic_string<char>::__long" = type { %struct.anon.4, i64, ptr }
%struct.anon.4 = type { i64 }
%"class.mitsuba::ZStream" = type <{ %"class.mitsuba::Stream", %"class.mitsuba::ref", %"class.std::__1::unique_ptr", %"class.std::__1::unique_ptr", [32768 x i8], [32768 x i8], i8, [7 x i8] }>
%"class.mitsuba::Stream" = type { %"class.mitsuba::Object.base", i32 }
%"class.mitsuba::Object.base" = type <{ ptr, %"struct.std::__1::atomic" }>
%"struct.std::__1::atomic" = type { %"struct.std::__1::__atomic_base" }
%"struct.std::__1::__atomic_base" = type { %"struct.std::__1::__atomic_base.0" }
%"struct.std::__1::__atomic_base.0" = type { %"struct.std::__1::__cxx_atomic_impl" }
%"struct.std::__1::__cxx_atomic_impl" = type { %"struct.std::__1::__cxx_atomic_base_impl" }
%"struct.std::__1::__cxx_atomic_base_impl" = type { i32 }
%"class.mitsuba::ref" = type { ptr }
%"class.std::__1::unique_ptr" = type { %"class.std::__1::__compressed_pair" }
%"class.std::__1::__compressed_pair" = type { %"struct.std::__1::__compressed_pair_elem" }
%"struct.std::__1::__compressed_pair_elem" = type { ptr }
%struct.z_stream_s = type { ptr, i32, i64, ptr, i32, i64, ptr, ptr, ptr, ptr, ptr, i32, i64, i64 }

@_ZN7mitsuba7ZStream7m_classE = global ptr null, align 8
@.str.1 = private unnamed_addr constant [116 x i8] c"generated/home/dtcxzyw/WorkSpace/Projects/compilers/llvm-opt-benchmark/bench/mitsuba3/mitsuba3/src/core/zstream.cpp\00", align 1
@.str.3 = private unnamed_addr constant [25 x i8] c"deflate(): stream error!\00", align 1

; Function Attrs: mustprogress nounwind uwtable
define linkonce_odr hidden noundef nonnull align 8 dereferenceable(8) ptr @_ZNKSt3__122__compressed_pair_elemIP10z_stream_sLi0ELb0EE5__getB8ne190000Ev(ptr noundef nonnull align 8 dereferenceable(8) %0) #4 comdat align 2 {
  %2 = alloca ptr, align 8
  store ptr %0, ptr %2, align 8
  %3 = load ptr, ptr %2, align 8
  %4 = getelementptr inbounds %"struct.std::__1::__compressed_pair_elem", ptr %3, i32 0, i32 0
  ret ptr %4
}

; Function Attrs: mustprogress nounwind uwtable
define linkonce_odr hidden noundef nonnull align 8 dereferenceable(8) ptr @_ZNKSt3__117__compressed_pairIP10z_stream_sNS_14default_deleteIS1_EEE5firstB8ne190000Ev(ptr noundef nonnull align 8 dereferenceable(8) %0) #4 comdat align 2 {
  %2 = alloca ptr, align 8
  store ptr %0, ptr %2, align 8
  %3 = load ptr, ptr %2, align 8
  %4 = call noundef nonnull align 8 dereferenceable(8) ptr @_ZNKSt3__122__compressed_pair_elemIP10z_stream_sLi0ELb0EE5__getB8ne190000Ev(ptr noundef nonnull align 8 dereferenceable(8) %3) #17
  ret ptr %4
}

; Function Attrs: mustprogress nounwind uwtable
define linkonce_odr hidden noundef ptr @_ZN7mitsuba3refINS_6StreamEEptEv(ptr noundef nonnull align 8 dereferenceable(8) %0) #4 comdat align 2 {
  %2 = alloca ptr, align 8
  store ptr %0, ptr %2, align 8
  %3 = load ptr, ptr %2, align 8
  %4 = getelementptr inbounds %"class.mitsuba::ref", ptr %3, i32 0, i32 0
  %5 = load ptr, ptr %4, align 8
  ret ptr %5
}

; Function Attrs: mustprogress nounwind uwtable
define linkonce_odr hidden noundef ptr @_ZNKSt3__110unique_ptrI10z_stream_sNS_14default_deleteIS1_EEE3getB8ne190000Ev(ptr noundef nonnull align 8 dereferenceable(8) %0) #4 comdat align 2 {
  %2 = alloca ptr, align 8
  store ptr %0, ptr %2, align 8
  %3 = load ptr, ptr %2, align 8
  %4 = getelementptr inbounds %"class.std::__1::unique_ptr", ptr %3, i32 0, i32 0
  %5 = call noundef nonnull align 8 dereferenceable(8) ptr @_ZNKSt3__117__compressed_pairIP10z_stream_sNS_14default_deleteIS1_EEE5firstB8ne190000Ev(ptr noundef nonnull align 8 dereferenceable(8) %4) #17
  %6 = load ptr, ptr %5, align 8
  ret ptr %6
}

; Function Attrs: mustprogress nounwind uwtable
define linkonce_odr hidden noundef ptr @_ZNKSt3__110unique_ptrI10z_stream_sNS_14default_deleteIS1_EEEptB8ne190000Ev(ptr noundef nonnull align 8 dereferenceable(8) %0) #4 comdat align 2 {
  %2 = alloca ptr, align 8
  store ptr %0, ptr %2, align 8
  %3 = load ptr, ptr %2, align 8
  %4 = getelementptr inbounds %"class.std::__1::unique_ptr", ptr %3, i32 0, i32 0
  %5 = call noundef nonnull align 8 dereferenceable(8) ptr @_ZNKSt3__117__compressed_pairIP10z_stream_sNS_14default_deleteIS1_EEE5firstB8ne190000Ev(ptr noundef nonnull align 8 dereferenceable(8) %4) #17
  %6 = load ptr, ptr %5, align 8
  ret ptr %6
}

; Function Attrs: mustprogress uwtable
define void @_ZN7mitsuba7ZStream5writeEPKvm(ptr noundef nonnull align 8 dereferenceable(65577) %0, ptr noundef %1, i64 noundef %2) unnamed_addr #0 align 2 personality ptr @__gxx_personality_v0 {
  %4 = alloca ptr, align 8
  %5 = alloca ptr, align 8
  %6 = alloca i64, align 8
  %7 = alloca i32, align 4
  %8 = alloca i32, align 4
  %9 = alloca %"class.std::__1::basic_string", align 8
  %10 = alloca ptr, align 8
  %11 = alloca i32, align 4
  store ptr %0, ptr %4, align 8
  store ptr %1, ptr %5, align 8
  store i64 %2, ptr %6, align 8
  %12 = load ptr, ptr %4, align 8
  %13 = load i64, ptr %6, align 8
  %14 = trunc i64 %13 to i32
  %15 = getelementptr inbounds %"class.mitsuba::ZStream", ptr %12, i32 0, i32 2
  %16 = call noundef ptr @_ZNKSt3__110unique_ptrI10z_stream_sNS_14default_deleteIS1_EEEptB8ne190000Ev(ptr noundef nonnull align 8 dereferenceable(8) %15) #17
  %17 = getelementptr inbounds %struct.z_stream_s, ptr %16, i32 0, i32 1
  store i32 %14, ptr %17, align 8
  %18 = load ptr, ptr %5, align 8
  %19 = getelementptr inbounds %"class.mitsuba::ZStream", ptr %12, i32 0, i32 2
  %20 = call noundef ptr @_ZNKSt3__110unique_ptrI10z_stream_sNS_14default_deleteIS1_EEEptB8ne190000Ev(ptr noundef nonnull align 8 dereferenceable(8) %19) #17
  %21 = getelementptr inbounds %struct.z_stream_s, ptr %20, i32 0, i32 0
  store ptr %18, ptr %21, align 8
  store i32 0, ptr %7, align 4
  br label %22

22:                                               ; preds = %62, %3
  %23 = getelementptr inbounds %"class.mitsuba::ZStream", ptr %12, i32 0, i32 2
  %24 = call noundef ptr @_ZNKSt3__110unique_ptrI10z_stream_sNS_14default_deleteIS1_EEEptB8ne190000Ev(ptr noundef nonnull align 8 dereferenceable(8) %23) #17
  %25 = getelementptr inbounds %struct.z_stream_s, ptr %24, i32 0, i32 4
  store i32 32768, ptr %25, align 8
  %26 = getelementptr inbounds %"class.mitsuba::ZStream", ptr %12, i32 0, i32 4
  %27 = getelementptr inbounds [32768 x i8], ptr %26, i64 0, i64 0
  %28 = getelementptr inbounds %"class.mitsuba::ZStream", ptr %12, i32 0, i32 2
  %29 = call noundef ptr @_ZNKSt3__110unique_ptrI10z_stream_sNS_14default_deleteIS1_EEEptB8ne190000Ev(ptr noundef nonnull align 8 dereferenceable(8) %28) #17
  %30 = getelementptr inbounds %struct.z_stream_s, ptr %29, i32 0, i32 3
  store ptr %27, ptr %30, align 8
  %31 = getelementptr inbounds %"class.mitsuba::ZStream", ptr %12, i32 0, i32 2
  %32 = call noundef ptr @_ZNKSt3__110unique_ptrI10z_stream_sNS_14default_deleteIS1_EEE3getB8ne190000Ev(ptr noundef nonnull align 8 dereferenceable(8) %31) #17
  %33 = call i32 @deflate(ptr noundef %32, i32 noundef 0)
  store i32 %33, ptr %8, align 4
  %34 = load i32, ptr %8, align 4
  %35 = icmp eq i32 %34, -2
  br i1 %35, label %36, label %45

36:                                               ; preds = %22
  br label %37

37:                                               ; preds = %36
  %38 = load ptr, ptr @_ZN7mitsuba7ZStream7m_classE, align 8
  call void @_ZN10tinyformat6formatIJEEENSt3__112basic_stringIcNS1_11char_traitsIcEENS1_9allocatorIcEEEEPKcDpRKT_(ptr dead_on_unwind writable sret(%"class.std::__1::basic_string") align 8 %9, ptr noundef @.str.3)
  invoke void @_ZN7mitsuba6detail5ThrowENS_8LogLevelEPKNS_5ClassEPKciRKNSt3__112basic_stringIcNS7_11char_traitsIcEENS7_9allocatorIcEEEE(i32 noundef 400, ptr noundef %38, ptr noundef @.str.1, i32 noundef 48, ptr noundef nonnull align 8 dereferenceable(24) %9) #18
          to label %39 unwind label %40

39:                                               ; preds = %37
  unreachable

40:                                               ; preds = %37
  %41 = landingpad { ptr, i32 }
          cleanup
  %42 = extractvalue { ptr, i32 } %41, 0
  store ptr %42, ptr %10, align 8
  %43 = extractvalue { ptr, i32 } %41, 1
  store i32 %43, ptr %11, align 4
  call void @_ZNSt3__112basic_stringIcNS_11char_traitsIcEENS_9allocatorIcEEED1Ev(ptr noundef nonnull align 8 dereferenceable(24) %9) #17
  br label %67

44:                                               ; No predecessors!
  br label %45

45:                                               ; preds = %44, %22
  %46 = getelementptr inbounds %"class.mitsuba::ZStream", ptr %12, i32 0, i32 2
  %47 = call noundef ptr @_ZNKSt3__110unique_ptrI10z_stream_sNS_14default_deleteIS1_EEEptB8ne190000Ev(ptr noundef nonnull align 8 dereferenceable(8) %46) #17
  %48 = getelementptr inbounds %struct.z_stream_s, ptr %47, i32 0, i32 4
  %49 = load i32, ptr %48, align 8
  %50 = zext i32 %49 to i64
  %51 = sub i64 32768, %50
  %52 = trunc i64 %51 to i32
  store i32 %52, ptr %7, align 4
  %53 = getelementptr inbounds %"class.mitsuba::ZStream", ptr %12, i32 0, i32 1
  %54 = call noundef ptr @_ZN7mitsuba3refINS_6StreamEEptEv(ptr noundef nonnull align 8 dereferenceable(8) %53)
  %55 = getelementptr inbounds %"class.mitsuba::ZStream", ptr %12, i32 0, i32 4
  %56 = getelementptr inbounds [32768 x i8], ptr %55, i64 0, i64 0
  %57 = load i32, ptr %7, align 4
  %58 = sext i32 %57 to i64
  %59 = load ptr, ptr %54, align 8
  %60 = getelementptr inbounds ptr, ptr %59, i64 12
  %61 = load ptr, ptr %60, align 8
  call void %61(ptr noundef nonnull align 8 dereferenceable(16) %54, ptr noundef %56, i64 noundef %58)
  br label %62

62:                                               ; preds = %45
  %63 = load i32, ptr %7, align 4
  %64 = icmp ne i32 %63, 0
  br i1 %64, label %22, label %65, !llvm.loop !4

65:                                               ; preds = %62
  %66 = getelementptr inbounds %"class.mitsuba::ZStream", ptr %12, i32 0, i32 6
  store i8 1, ptr %66, align 8
  ret void

67:                                               ; preds = %40
  %68 = load ptr, ptr %10, align 8
  %69 = load i32, ptr %11, align 4
  %70 = insertvalue { ptr, i32 } poison, ptr %68, 0
  %71 = insertvalue { ptr, i32 } %70, i32 %69, 1
  resume { ptr, i32 } %71
}