; Function Attrs: mustprogress uwtable
define void @_ZN7mitsuba7ZStream5writeEPKvm(ptr noundef nonnull align 8 dereferenceable(65577) %0, ptr noundef %1, i64 noundef %2) unnamed_addr #0 align 2 personality ptr @__gxx_personality_v0 {
  %4 = alloca %"class.std::__1::basic_string", align 8
  %5 = trunc i64 %2 to i32
  %6 = getelementptr inbounds i8, ptr %0, i64 24
  %7 = load ptr, ptr %6, align 8
  %8 = getelementptr inbounds i8, ptr %7, i64 8
  store i32 %5, ptr %8, align 8
  %9 = load ptr, ptr %6, align 8
  store ptr %1, ptr %9, align 8
  %10 = getelementptr inbounds i8, ptr %0, i64 40
  %11 = getelementptr inbounds i8, ptr %0, i64 16
  br label %12

12:                                               ; preds = %25, %3
  %13 = load ptr, ptr %6, align 8
  %14 = getelementptr inbounds i8, ptr %13, i64 32
  store i32 32768, ptr %14, align 8
  %15 = load ptr, ptr %6, align 8
  %16 = getelementptr inbounds i8, ptr %15, i64 24
  store ptr %10, ptr %16, align 8
  %17 = load ptr, ptr %6, align 8
  %18 = tail call i32 @deflate(ptr noundef %17, i32 noundef 0)
  %19 = icmp eq i32 %18, -2
  br i1 %19, label %20, label %25

20:                                               ; preds = %12
  %21 = load ptr, ptr @_ZN7mitsuba7ZStream7m_classE, align 8
  call void @_ZN10tinyformat6formatIJEEENSt3__112basic_stringIcNS1_11char_traitsIcEENS1_9allocatorIcEEEEPKcDpRKT_(ptr dead_on_unwind nonnull writable sret(%"class.std::__1::basic_string") align 8 %4, ptr noundef nonnull @.str.3)
  invoke void @_ZN7mitsuba6detail5ThrowENS_8LogLevelEPKNS_5ClassEPKciRKNSt3__112basic_stringIcNS7_11char_traitsIcEENS7_9allocatorIcEEEE(i32 noundef 400, ptr noundef %21, ptr noundef nonnull @.str.1, i32 noundef 48, ptr noundef nonnull align 8 dereferenceable(24) %4) #14
          to label %22 unwind label %23

22:                                               ; preds = %20
  unreachable

23:                                               ; preds = %20
  %24 = landingpad { ptr, i32 }
          cleanup
  call void @_ZNSt3__112basic_stringIcNS_11char_traitsIcEENS_9allocatorIcEEED1Ev(ptr noundef nonnull align 8 dereferenceable(24) %4) #15
  resume { ptr, i32 } %24

25:                                               ; preds = %12
  %26 = load ptr, ptr %6, align 8
  %27 = getelementptr inbounds i8, ptr %26, i64 32
  %28 = load i32, ptr %27, align 8
  %29 = sub i32 32768, %28
  %30 = load ptr, ptr %11, align 8
  %31 = sext i32 %29 to i64
  %32 = load ptr, ptr %30, align 8
  %33 = getelementptr inbounds i8, ptr %32, i64 96
  %34 = load ptr, ptr %33, align 8
  tail call void %34(ptr noundef nonnull align 8 dereferenceable(16) %30, ptr noundef nonnull %10, i64 noundef %31)
  %.not = icmp eq i32 %28, 32768
  br i1 %.not, label %35, label %12, !llvm.loop !7

35:                                               ; preds = %25
  %36 = getelementptr inbounds i8, ptr %0, i64 65576
  store i8 1, ptr %36, align 8
  ret void
}